; Function Attrs: nounwind uwtable
define hidden range(i32 0, 3) i32 @exr_attr_chlist_destroy(ptr noundef %0, ptr noundef %1) local_unnamed_addr #0 {
  %.not = icmp eq ptr %0, null
  br i1 %.not, label %15, label %3

3:                                                ; preds = %2
  %.not18 = icmp eq ptr %1, null
  br i1 %.not18, label %15, label %4

4:                                                ; preds = %3
  %5 = load i32, ptr %1, align 8, !tbaa !30
  %6 = getelementptr inbounds nuw i8, ptr %1, i64 8
  %7 = load ptr, ptr %6, align 8, !tbaa !25
  %8 = icmp sgt i32 %5, 0
  br i1 %8, label %.lr.ph.preheader, label %._crit_edge

.lr.ph.preheader:                                 ; preds = %4
  %wide.trip.count = zext nneg i32 %5 to i64
  br label %.lr.ph

._crit_edge:                                      ; preds = %.lr.ph, %4
  %.not19 = icmp eq ptr %7, null
  br i1 %.not19, label %14, label %11

.lr.ph:                                           ; preds = %.lr.ph.preheader, %.lr.ph
  %indvars.iv = phi i64 [ 0, %.lr.ph.preheader ], [ %indvars.iv.next, %.lr.ph ]
  %9 = getelementptr inbounds nuw %struct.exr_attr_chlist_entry_t, ptr %7, i64 %indvars.iv
  %10 = tail call i32 @exr_attr_string_destroy(ptr noundef nonnull %0, ptr noundef %9) #6
  %indvars.iv.next = add nuw nsw i64 %indvars.iv, 1
  %exitcond.not = icmp eq i64 %indvars.iv.next, %wide.trip.count
  br i1 %exitcond.not, label %._crit_edge, label %.lr.ph, !llvm.loop !47

11:                                               ; preds = %._crit_edge
  %12 = getelementptr inbounds nuw i8, ptr %0, i64 96
  %13 = load ptr, ptr %12, align 8, !tbaa !43
  tail call void %13(ptr noundef nonnull %7) #6
  br label %14

14:                                               ; preds = %11, %._crit_edge
  tail call void @llvm.memset.p0.i64(ptr noundef nonnull align 8 dereferenceable(16) %1, i8 0, i64 16, i1 false)
  br label %15

15:                                               ; preds = %3, %14, %2
  %.014 = phi i32 [ 2, %2 ], [ 0, %14 ], [ 0, %3 ]
  ret i32 %.014
}